
Allocating common symbols
Common symbol       size              file

durations           0xc               ./kb_driver/keyboard_driver.o
check_buttons       0xc               ./kb_driver/keyboard_driver.o
buttons             0xc               ./kb_driver/keyboard_driver.o
RXBuf               0x10              ./usart_funcs/usart_funcs.o
TXBuf               0x10              ./usart_funcs/usart_funcs.o
btn_cnt             0x1               ./kb_driver/keyboard_driver.o

Discarded input sections

 .text          0x00000000        0x0 /opt/codesourcery/arm-2011.03/bin/../lib/gcc/arm-none-eabi/4.5.2/thumb2/crti.o
 .data          0x00000000        0x0 /opt/codesourcery/arm-2011.03/bin/../lib/gcc/arm-none-eabi/4.5.2/thumb2/crti.o
 .bss           0x00000000        0x0 /opt/codesourcery/arm-2011.03/bin/../lib/gcc/arm-none-eabi/4.5.2/thumb2/crti.o
 .data          0x00000000        0x4 /opt/codesourcery/arm-2011.03/bin/../lib/gcc/arm-none-eabi/4.5.2/thumb2/crtbegin.o
 .data          0x00000000        0x0 ./usart_funcs/usart_funcs.o
 .text          0x00000000       0x14 ./startup/startup_stm32f10x_md.o
 .data          0x00000000        0x0 ./startup/startup_stm32f10x_md.o
 .bss           0x00000000        0x0 ./startup/startup_stm32f10x_md.o
 .data          0x00000000        0x0 ./sim900/sim900.o
 .bss           0x00000000        0x0 ./sim900/sim900.o
 .text          0x00000000      0x28c ./libs/core_cm3.o
 .data          0x00000000        0x0 ./libs/core_cm3.o
 .bss           0x00000000        0x0 ./libs/core_cm3.o
 .text          0x00000000      0x254 ./libs/system_stm32f10x.o
 .data          0x00000000       0x14 ./libs/system_stm32f10x.o
 .bss           0x00000000        0x0 ./libs/system_stm32f10x.o
 .data          0x00000000        0x0 ./kb_driver/keyboard_driver.o
 .bss           0x00000000        0x0 ./kb_driver/keyboard_driver.o
 .data          0x00000000        0x0 ./hd44780_driver/hd44780_driver.o
 .bss           0x00000000        0x0 ./hd44780_driver/hd44780_driver.o
 .data          0x00000000        0x0 ./delay/delay.o
 .bss           0x00000000        0x0 ./delay/delay.o
 .text          0x00000000       0xfc ./common/common_funcs.o
 .data          0x00000000        0x0 ./common/common_funcs.o
 .bss           0x00000000        0x0 ./common/common_funcs.o
 .rodata        0x00000000       0x14 ./common/common_funcs.o
 .data          0x00000000        0x0 ./clock/clock.o
 .bss           0x00000000        0x0 ./clock/clock.o
 .data          0x00000000        0x0 ./USART/usart.o
 .bss           0x00000000        0x0 ./USART/usart.o
 .data          0x00000000        0x0 ./Main.o
 .bss           0x00000000        0x0 ./Main.o
 .text          0x00000000        0x0 /opt/codesourcery/arm-2011.03/bin/../lib/gcc/arm-none-eabi/4.5.2/thumb2/crtend.o
 .data          0x00000000        0x0 /opt/codesourcery/arm-2011.03/bin/../lib/gcc/arm-none-eabi/4.5.2/thumb2/crtend.o
 .bss           0x00000000        0x0 /opt/codesourcery/arm-2011.03/bin/../lib/gcc/arm-none-eabi/4.5.2/thumb2/crtend.o
 .jcr           0x00000000        0x4 /opt/codesourcery/arm-2011.03/bin/../lib/gcc/arm-none-eabi/4.5.2/thumb2/crtend.o
 .text          0x00000000        0x0 /opt/codesourcery/arm-2011.03/bin/../lib/gcc/arm-none-eabi/4.5.2/thumb2/crtn.o
 .data          0x00000000        0x0 /opt/codesourcery/arm-2011.03/bin/../lib/gcc/arm-none-eabi/4.5.2/thumb2/crtn.o
 .bss           0x00000000        0x0 /opt/codesourcery/arm-2011.03/bin/../lib/gcc/arm-none-eabi/4.5.2/thumb2/crtn.o

Memory Configuration

Name             Origin             Length             Attributes
FLASH            0x08000000         0x00010000         xr
RAM              0x20000000         0x00005000         xrw
MEMORY_B1        0x60000000         0x00000000         xr
*default*        0x00000000         0xffffffff

Linker script and memory map

LOAD /opt/codesourcery/arm-2011.03/bin/../lib/gcc/arm-none-eabi/4.5.2/thumb2/crti.o
LOAD /opt/codesourcery/arm-2011.03/bin/../lib/gcc/arm-none-eabi/4.5.2/thumb2/crtbegin.o
LOAD ./usart_funcs/usart_funcs.o
LOAD ./startup/startup_stm32f10x_md.o
LOAD ./sim900/sim900.o
LOAD ./libs/core_cm3.o
LOAD ./libs/system_stm32f10x.o
LOAD ./kb_driver/keyboard_driver.o
LOAD ./hd44780_driver/hd44780_driver.o
LOAD ./delay/delay.o
LOAD ./common/common_funcs.o
LOAD ./clock/clock.o
LOAD ./USART/usart.o
LOAD ./Main.o
START GROUP
LOAD /opt/codesourcery/arm-2011.03/bin/../lib/gcc/arm-none-eabi/4.5.2/thumb2/libgcc.a
LOAD /opt/codesourcery/arm-2011.03/bin/../lib/gcc/arm-none-eabi/4.5.2/../../../../arm-none-eabi/lib/thumb2/libc.a
END GROUP
LOAD /opt/codesourcery/arm-2011.03/bin/../lib/gcc/arm-none-eabi/4.5.2/thumb2/crtend.o
LOAD /opt/codesourcery/arm-2011.03/bin/../lib/gcc/arm-none-eabi/4.5.2/thumb2/crtn.o
                0x20005000                _estack = 0x20005000
                0x00000000                _Min_Heap_Size = 0x0
                0x00000100                _Min_Stack_Size = 0x100

.isr_vector     0x08000000      0x10c
                0x08000000                . = ALIGN (0x4)
 *(.isr_vector)
 .isr_vector    0x08000000      0x10c ./startup/startup_stm32f10x_md.o
                0x08000000                g_pfnVectors
                0x0800010c                . = ALIGN (0x4)

.text           0x0800010c      0xfac
                0x0800010c                . = ALIGN (0x4)
 *(.text)
 .text          0x0800010c       0x30 /opt/codesourcery/arm-2011.03/bin/../lib/gcc/arm-none-eabi/4.5.2/thumb2/crtbegin.o
 .text          0x0800013c      0x26c ./usart_funcs/usart_funcs.o
                0x0800013c                FlushBuf
                0x0800016c                PutChar
                0x080001d0                GetChar
                0x08000234                USART_PutChar
                0x080002c8                SendStr
                0x080002f8                USART1_IRQHandler
 .text          0x080003a8       0xf4 ./sim900/sim900.o
                0x080003a8                InitSim900
                0x08000410                SwitchSim900
 .text          0x0800049c      0x33c ./kb_driver/keyboard_driver.o
                0x0800049c                init_keyboard
                0x08000534                kb_strobe
                0x080006b8                add_button
                0x08000730                get_btn
                0x08000794                get_btn_simple
 .text          0x080007d8      0x37c ./hd44780_driver/hd44780_driver.o
                0x080007d8                lcd_delay
                0x08000800                lcd_init
                0x08000874                lcd_set_user_char
                0x080008d8                lcd_set_xy
                0x0800091c                lcd_out
                0x0800094c                lcd_clear
                0x08000960                lcd_set_state
                0x080009d8                lcd_set_4bit_mode
                0x08000a5c                lcd_send
 .text          0x08000b54       0xfc ./delay/delay.o
                0x08000b88                delay_timer_ms
                0x08000bec                timer2_init
 .text          0x08000c50       0xac ./clock/clock.o
                0x08000c50                init_bad_clock_inter
                0x08000c6c                InitRCC
                0x08000ce0                NMI_Handler
 .text          0x08000cfc      0x1c4 ./USART/usart.o
                0x08000d30                InitUSART
                0x08000e14                send_to_usart
                0x08000e34                usart_interrupt_init
                0x08000e68                read_byte
                0x08000e94                send_string
 .text          0x08000ec0      0x15c ./Main.o
                0x08000ec0                main
                0x08000ef8                TIM2_IRQHandler
                0x08000fa0                InitAll
                0x08001010                HardFault_Handler
 *(.text*)
 .text.Reset_Handler
                0x0800101c       0x40 ./startup/startup_stm32f10x_md.o
                0x0800101c                Reset_Handler
 .text.Default_Handler
                0x0800105c        0x2 ./startup/startup_stm32f10x_md.o
                0x0800105c                EXTI2_IRQHandler
                0x0800105c                DebugMon_Handler
                0x0800105c                TIM1_CC_IRQHandler
                0x0800105c                SysTick_Handler
                0x0800105c                PVD_IRQHandler
                0x0800105c                PendSV_Handler
                0x0800105c                EXTI3_IRQHandler
                0x0800105c                EXTI0_IRQHandler
                0x0800105c                I2C2_EV_IRQHandler
                0x0800105c                UsageFault_Handler
                0x0800105c                ADC1_2_IRQHandler
                0x0800105c                SPI1_IRQHandler
                0x0800105c                TAMPER_IRQHandler
                0x0800105c                DMA1_Channel4_IRQHandler
                0x0800105c                USART3_IRQHandler
                0x0800105c                RTC_IRQHandler
                0x0800105c                DMA1_Channel7_IRQHandler
                0x0800105c                CAN1_RX1_IRQHandler
                0x0800105c                TIM4_IRQHandler
                0x0800105c                I2C1_EV_IRQHandler
                0x0800105c                DMA1_Channel6_IRQHandler
                0x0800105c                TIM3_IRQHandler
                0x0800105c                RCC_IRQHandler
                0x0800105c                TIM1_TRG_COM_IRQHandler
                0x0800105c                DMA1_Channel1_IRQHandler
                0x0800105c                Default_Handler
                0x0800105c                EXTI15_10_IRQHandler
                0x0800105c                EXTI9_5_IRQHandler
                0x0800105c                SPI2_IRQHandler
                0x0800105c                MemManage_Handler
                0x0800105c                SVC_Handler
                0x0800105c                DMA1_Channel5_IRQHandler
                0x0800105c                EXTI4_IRQHandler
                0x0800105c                USB_LP_CAN1_RX0_IRQHandler
                0x0800105c                USB_HP_CAN1_TX_IRQHandler
                0x0800105c                DMA1_Channel3_IRQHandler
                0x0800105c                TIM1_UP_IRQHandler
                0x0800105c                WWDG_IRQHandler
                0x0800105c                TIM1_BRK_IRQHandler
                0x0800105c                EXTI1_IRQHandler
                0x0800105c                RTCAlarm_IRQHandler
                0x0800105c                USART2_IRQHandler
                0x0800105c                I2C2_ER_IRQHandler
                0x0800105c                DMA1_Channel2_IRQHandler
                0x0800105c                CAN1_SCE_IRQHandler
                0x0800105c                FLASH_IRQHandler
                0x0800105c                BusFault_Handler
                0x0800105c                I2C1_ER_IRQHandler
                0x0800105c                USBWakeUp_IRQHandler
 *(.rodata)
 *fill*         0x0800105e        0x2 00
 .rodata        0x08001060       0x18 ./kb_driver/keyboard_driver.o
 .rodata        0x08001078       0x28 ./Main.o
 *(.rodata*)
 *(.glue_7)
 .glue_7        0x00000000        0x0 linker stubs
 *(.glue_7t)
 .glue_7t       0x00000000        0x0 linker stubs
 *(.init)
 .init          0x080010a0        0x4 /opt/codesourcery/arm-2011.03/bin/../lib/gcc/arm-none-eabi/4.5.2/thumb2/crti.o
                0x080010a0                _init
 .init          0x080010a4        0x8 /opt/codesourcery/arm-2011.03/bin/../lib/gcc/arm-none-eabi/4.5.2/thumb2/crtn.o
 *(.fini)
 .fini          0x080010ac        0x4 /opt/codesourcery/arm-2011.03/bin/../lib/gcc/arm-none-eabi/4.5.2/thumb2/crti.o
                0x080010ac                _fini
 .fini          0x080010b0        0x8 /opt/codesourcery/arm-2011.03/bin/../lib/gcc/arm-none-eabi/4.5.2/thumb2/crtn.o
                0x080010b8                . = ALIGN (0x4)
                0x080010b8                _etext = .

.vfp11_veneer   0x080010b8        0x0
 .vfp11_veneer  0x00000000        0x0 linker stubs

.v4_bx          0x080010b8        0x0
 .v4_bx         0x00000000        0x0 linker stubs

.ARM.extab
 *(.ARM.extab* .gnu.linkonce.armextab.*)

.ARM            0x080010b8        0x0
                0x080010b8                __exidx_start = .
 *(.ARM.exidx*)
                0x080010b8                __exidx_end = .

.ARM.attributes
                0x080010b8       0x25
 *(.ARM.attributes)
 .ARM.attributes
                0x080010b8       0x19 /opt/codesourcery/arm-2011.03/bin/../lib/gcc/arm-none-eabi/4.5.2/thumb2/crti.o
 .ARM.attributes
                0x080010d1       0x29 /opt/codesourcery/arm-2011.03/bin/../lib/gcc/arm-none-eabi/4.5.2/thumb2/crtbegin.o
 .ARM.attributes
                0x080010fa       0x31 ./usart_funcs/usart_funcs.o
 .ARM.attributes
                0x0800112b       0x21 ./startup/startup_stm32f10x_md.o
 .ARM.attributes
                0x0800114c       0x31 ./sim900/sim900.o
 .ARM.attributes
                0x0800117d       0x31 ./libs/core_cm3.o
 .ARM.attributes
                0x080011ae       0x31 ./libs/system_stm32f10x.o
 .ARM.attributes
                0x080011df       0x31 ./kb_driver/keyboard_driver.o
 .ARM.attributes
                0x08001210       0x31 ./hd44780_driver/hd44780_driver.o
 .ARM.attributes
                0x08001241       0x31 ./delay/delay.o
 .ARM.attributes
                0x08001272       0x31 ./common/common_funcs.o
 .ARM.attributes
                0x080012a3       0x31 ./clock/clock.o
 .ARM.attributes
                0x080012d4       0x31 ./USART/usart.o
 .ARM.attributes
                0x08001305       0x31 ./Main.o
 .ARM.attributes
                0x08001336       0x29 /opt/codesourcery/arm-2011.03/bin/../lib/gcc/arm-none-eabi/4.5.2/thumb2/crtend.o
 .ARM.attributes
                0x0800135f       0x19 /opt/codesourcery/arm-2011.03/bin/../lib/gcc/arm-none-eabi/4.5.2/thumb2/crtn.o

.preinit_array  0x08001378        0x0
                0x08001378                PROVIDE (__preinit_array_start, .)
 *(.preinit_array*)
                0x08001378                PROVIDE (__preinit_array_end, .)

.init_array     0x08001378        0x4
                0x08001378                PROVIDE (__init_array_start, .)
 *(SORT(.init_array.*))
 *(.init_array*)
 .init_array    0x08001378        0x4 /opt/codesourcery/arm-2011.03/bin/../lib/gcc/arm-none-eabi/4.5.2/thumb2/crtbegin.o
                0x0800137c                PROVIDE (__init_array_end, .)

.fini_array     0x0800137c        0x4
                0x0800137c                PROVIDE (__fini_array_start, .)
 *(.fini_array*)
 .fini_array    0x0800137c        0x4 /opt/codesourcery/arm-2011.03/bin/../lib/gcc/arm-none-eabi/4.5.2/thumb2/crtbegin.o
 *(SORT(.fini_array.*))
                0x08001380                PROVIDE (__fini_array_end, .)
                0x08001380                _sidata = .

.data           0x20000000        0x0 load address 0x08001380
                0x20000000                . = ALIGN (0x4)
                0x20000000                _sdata = .
 *(.data)
 *(.data*)
                0x20000000                . = ALIGN (0x4)
                0x20000000                _edata = .

.jcr            0x20000000        0x0
 .jcr           0x20000000        0x0 /opt/codesourcery/arm-2011.03/bin/../lib/gcc/arm-none-eabi/4.5.2/thumb2/crtbegin.o
                0x20000000                . = ALIGN (0x4)

.bss            0x20000000       0x50
                0x20000000                _sbss = .
                0x20000000                __bss_start__ = _sbss
 *(.bss)
 .bss           0x20000000        0x1 /opt/codesourcery/arm-2011.03/bin/../lib/gcc/arm-none-eabi/4.5.2/thumb2/crtbegin.o
 .bss           0x20000001        0x6 ./usart_funcs/usart_funcs.o
                0x20000001                RXtail
                0x20000002                RXhead
                0x20000003                RXcount
                0x20000004                TXtail
                0x20000005                TXhead
                0x20000006                TXcount
 *(.bss*)
 *(COMMON)
 *fill*         0x20000007        0x1 00
 COMMON         0x20000008       0x20 ./usart_funcs/usart_funcs.o
                0x20000008                RXBuf
                0x20000018                TXBuf
 COMMON         0x20000028       0x25 ./kb_driver/keyboard_driver.o
                0x20000028                durations
                0x20000034                check_buttons
                0x20000040                buttons
                0x2000004c                btn_cnt
                0x20000050                . = ALIGN (0x4)
 *fill*         0x2000004d        0x3 00
                0x20000050                _ebss = .
                0x20000050                __bss_end__ = _ebss
                0x20000050                PROVIDE (end, _ebss)
                0x20000050                PROVIDE (_end, _ebss)

._user_heap_stack
                0x20000050      0x100
                0x20000050                . = ALIGN (0x4)
                0x20000050                . = (. + _Min_Heap_Size)
                0x20000150                . = (. + _Min_Stack_Size)
 *fill*         0x20000050      0x100 00
                0x20000150                . = ALIGN (0x4)

.memory_b1_text
 *(.mb1text)
 *(.mb1text*)
 *(.mb1rodata)
 *(.mb1rodata*)

/DISCARD/
 libc.a(*)
 libm.a(*)
 libgcc.a(*)
OUTPUT(I7_v1_0.elf elf32-littlearm)

.debug_abbrev   0x00000000      0xbfb
 .debug_abbrev  0x00000000      0x138 ./usart_funcs/usart_funcs.o
 .debug_abbrev  0x00000138       0x12 ./startup/startup_stm32f10x_md.o
 .debug_abbrev  0x0000014a       0xc4 ./sim900/sim900.o
 .debug_abbrev  0x0000020e       0xd7 ./libs/core_cm3.o
 .debug_abbrev  0x000002e5      0x164 ./libs/system_stm32f10x.o
 .debug_abbrev  0x00000449      0x169 ./kb_driver/keyboard_driver.o
 .debug_abbrev  0x000005b2      0x110 ./hd44780_driver/hd44780_driver.o
 .debug_abbrev  0x000006c2      0x131 ./delay/delay.o
 .debug_abbrev  0x000007f3       0xb0 ./common/common_funcs.o
 .debug_abbrev  0x000008a3       0xe5 ./clock/clock.o
 .debug_abbrev  0x00000988      0x166 ./USART/usart.o
 .debug_abbrev  0x00000aee      0x10d ./Main.o

.debug_info     0x00000000     0x2b58
 .debug_info    0x00000000      0x37c ./usart_funcs/usart_funcs.o
 .debug_info    0x0000037c       0x6f ./startup/startup_stm32f10x_md.o
 .debug_info    0x000003eb      0x21e ./sim900/sim900.o
 .debug_info    0x00000609      0x54c ./libs/core_cm3.o
 .debug_info    0x00000b55      0x31a ./libs/system_stm32f10x.o
 .debug_info    0x00000e6f      0x3c1 ./kb_driver/keyboard_driver.o
 .debug_info    0x00001230      0x3e5 ./hd44780_driver/hd44780_driver.o
 .debug_info    0x00001615      0x6da ./delay/delay.o
 .debug_info    0x00001cef      0x12e ./common/common_funcs.o
 .debug_info    0x00001e1d      0x1d1 ./clock/clock.o
 .debug_info    0x00001fee      0x630 ./USART/usart.o
 .debug_info    0x0000261e      0x53a ./Main.o

.debug_line     0x00000000     0x156d
 .debug_line    0x00000000      0x1c3 ./usart_funcs/usart_funcs.o
 .debug_line    0x000001c3       0x75 ./startup/startup_stm32f10x_md.o
 .debug_line    0x00000238      0x21d ./sim900/sim900.o
 .debug_line    0x00000455      0x192 ./libs/core_cm3.o
 .debug_line    0x000005e7      0x1b0 ./libs/system_stm32f10x.o
 .debug_line    0x00000797      0x1d3 ./kb_driver/keyboard_driver.o
 .debug_line    0x0000096a      0x1f3 ./hd44780_driver/hd44780_driver.o
 .debug_line    0x00000b5d      0x174 ./delay/delay.o
 .debug_line    0x00000cd1      0x186 ./common/common_funcs.o
 .debug_line    0x00000e57      0x16d ./clock/clock.o
 .debug_line    0x00000fc4      0x184 ./USART/usart.o
 .debug_line    0x00001148      0x425 ./Main.o

.debug_macinfo  0x00000000   0x20e797
 .debug_macinfo
                0x00000000    0x3446a ./usart_funcs/usart_funcs.o
 .debug_macinfo
                0x0003446a    0x34622 ./sim900/sim900.o
 .debug_macinfo
                0x00068a8c     0x2aca ./libs/core_cm3.o
 .debug_macinfo
                0x0006b556    0x34475 ./libs/system_stm32f10x.o
 .debug_macinfo
                0x0009f9cb    0x34556 ./kb_driver/keyboard_driver.o
 .debug_macinfo
                0x000d3f21    0x349dc ./hd44780_driver/hd44780_driver.o
 .debug_macinfo
                0x001088fd    0x3446d ./delay/delay.o
 .debug_macinfo
                0x0013cd6a    0x3445c ./common/common_funcs.o
 .debug_macinfo
                0x001711c6    0x3445c ./clock/clock.o
 .debug_macinfo
                0x001a5622    0x3446d ./USART/usart.o
 .debug_macinfo
                0x001d9a8f    0x34d08 ./Main.o

.debug_loc      0x00000000      0xc8e
 .debug_loc     0x00000000      0x138 ./usart_funcs/usart_funcs.o
 .debug_loc     0x00000138       0x64 ./sim900/sim900.o
 .debug_loc     0x0000019c      0x3f0 ./libs/core_cm3.o
 .debug_loc     0x0000058c       0xc8 ./libs/system_stm32f10x.o
 .debug_loc     0x00000654      0x100 ./kb_driver/keyboard_driver.o
 .debug_loc     0x00000754      0x1d4 ./hd44780_driver/hd44780_driver.o
 .debug_loc     0x00000928       0xa8 ./delay/delay.o
 .debug_loc     0x000009d0       0x3a ./common/common_funcs.o
 .debug_loc     0x00000a0a       0x90 ./clock/clock.o
 .debug_loc     0x00000a9a      0x138 ./USART/usart.o
 .debug_loc     0x00000bd2       0xbc ./Main.o

.debug_pubnames
                0x00000000      0x571
 .debug_pubnames
                0x00000000       0xc3 ./usart_funcs/usart_funcs.o
 .debug_pubnames
                0x000000c3       0x32 ./sim900/sim900.o
 .debug_pubnames
                0x000000f5      0x159 ./libs/core_cm3.o
 .debug_pubnames
                0x0000024e       0x61 ./libs/system_stm32f10x.o
 .debug_pubnames
                0x000002af       0x98 ./kb_driver/keyboard_driver.o
 .debug_pubnames
                0x00000347       0xa1 ./hd44780_driver/hd44780_driver.o
 .debug_pubnames
                0x000003e8       0x35 ./delay/delay.o
 .debug_pubnames
                0x0000041d       0x1b ./common/common_funcs.o
 .debug_pubnames
                0x00000438       0x47 ./clock/clock.o
 .debug_pubnames
                0x0000047f       0x69 ./USART/usart.o
 .debug_pubnames
                0x000004e8       0x89 ./Main.o

.debug_pubtypes
                0x00000000      0x402
 .debug_pubtypes
                0x00000000       0x3e ./usart_funcs/usart_funcs.o
 .debug_pubtypes
                0x0000003e       0x59 ./sim900/sim900.o
 .debug_pubtypes
                0x00000097       0x50 ./libs/core_cm3.o
 .debug_pubtypes
                0x000000e7       0x5a ./libs/system_stm32f10x.o
 .debug_pubtypes
                0x00000141       0x59 ./kb_driver/keyboard_driver.o
 .debug_pubtypes
                0x0000019a       0x8b ./hd44780_driver/hd44780_driver.o
 .debug_pubtypes
                0x00000225       0x7d ./delay/delay.o
 .debug_pubtypes
                0x000002a2       0x2b ./common/common_funcs.o
 .debug_pubtypes
                0x000002cd       0x3c ./clock/clock.o
 .debug_pubtypes
                0x00000309       0x90 ./USART/usart.o
 .debug_pubtypes
                0x00000399       0x69 ./Main.o

.debug_aranges  0x00000000      0x188
 .debug_aranges
                0x00000000       0x20 ./usart_funcs/usart_funcs.o
 .debug_aranges
                0x00000020       0x28 ./startup/startup_stm32f10x_md.o
 .debug_aranges
                0x00000048       0x20 ./sim900/sim900.o
 .debug_aranges
                0x00000068       0x20 ./libs/core_cm3.o
 .debug_aranges
                0x00000088       0x20 ./libs/system_stm32f10x.o
 .debug_aranges
                0x000000a8       0x20 ./kb_driver/keyboard_driver.o
 .debug_aranges
                0x000000c8       0x20 ./hd44780_driver/hd44780_driver.o
 .debug_aranges
                0x000000e8       0x20 ./delay/delay.o
 .debug_aranges
                0x00000108       0x20 ./common/common_funcs.o
 .debug_aranges
                0x00000128       0x20 ./clock/clock.o
 .debug_aranges
                0x00000148       0x20 ./USART/usart.o
 .debug_aranges
                0x00000168       0x20 ./Main.o

.debug_str      0x00000000      0xafe
 .debug_str     0x00000000      0x18a ./usart_funcs/usart_funcs.o
                                0x1cb (size before relaxing)
 .debug_str     0x0000018a       0x89 ./sim900/sim900.o
                                0x166 (size before relaxing)
 .debug_str     0x00000213      0x14c ./libs/core_cm3.o
                                0x22e (size before relaxing)
 .debug_str     0x0000035f       0xcb ./libs/system_stm32f10x.o
                                0x1ee (size before relaxing)
 .debug_str     0x0000042a       0x93 ./kb_driver/keyboard_driver.o
                                0x1d0 (size before relaxing)
 .debug_str     0x000004bd      0x134 ./hd44780_driver/hd44780_driver.o
                                0x276 (size before relaxing)
 .debug_str     0x000005f1      0x40c ./delay/delay.o
                                0x575 (size before relaxing)
 .debug_str     0x000009fd       0x2a ./common/common_funcs.o
                                0x105 (size before relaxing)
 .debug_str     0x00000a27       0x3a ./clock/clock.o
                                0x16f (size before relaxing)
 .debug_str     0x00000a61       0x5d ./USART/usart.o
                                0x504 (size before relaxing)
 .debug_str     0x00000abe       0x40 ./Main.o
                                0x2b4 (size before relaxing)

.comment        0x00000000       0x2a
 .comment       0x00000000       0x2a ./usart_funcs/usart_funcs.o
                                 0x2b (size before relaxing)
 .comment       0x00000000       0x2b ./sim900/sim900.o
 .comment       0x00000000       0x2b ./libs/core_cm3.o
 .comment       0x00000000       0x2b ./libs/system_stm32f10x.o
 .comment       0x00000000       0x2b ./kb_driver/keyboard_driver.o
 .comment       0x00000000       0x2b ./hd44780_driver/hd44780_driver.o
 .comment       0x00000000       0x2b ./delay/delay.o
 .comment       0x00000000       0x2b ./common/common_funcs.o
 .comment       0x00000000       0x2b ./clock/clock.o
 .comment       0x00000000       0x2b ./USART/usart.o
 .comment       0x00000000       0x2b ./Main.o

.debug_frame    0x00000000      0x804
 .debug_frame   0x00000000       0xbc ./usart_funcs/usart_funcs.o
 .debug_frame   0x000000bc       0x4c ./sim900/sim900.o
 .debug_frame   0x00000108      0x280 ./libs/core_cm3.o
 .debug_frame   0x00000388       0x80 ./libs/system_stm32f10x.o
 .debug_frame   0x00000408       0xa4 ./kb_driver/keyboard_driver.o
 .debug_frame   0x000004ac      0x120 ./hd44780_driver/hd44780_driver.o
 .debug_frame   0x000005cc       0x68 ./delay/delay.o
 .debug_frame   0x00000634       0x2c ./common/common_funcs.o
 .debug_frame   0x00000660       0x64 ./clock/clock.o
 .debug_frame   0x000006c4       0xbc ./USART/usart.o
 .debug_frame   0x00000780       0x84 ./Main.o

.debug_ranges   0x00000000       0x20
 .debug_ranges  0x00000000       0x20 ./startup/startup_stm32f10x_md.o
